; Function Attrs: nofree norecurse nosync nounwind memory(readwrite, inaccessiblemem: none) uwtable
define internal noundef i32 @do_colorkey_slice16(ptr noundef readonly captures(none) %0, ptr noundef readonly captures(none) %1, i32 noundef %2, i32 noundef %3) #5 {
  %5 = getelementptr inbounds nuw i8, ptr %1, i64 108
  %6 = load i32, ptr %5, align 4, !tbaa !33
  %7 = mul nsw i32 %6, %2
  %8 = sdiv i32 %7, %3
  %9 = add nsw i32 %2, 1
  %10 = mul nsw i32 %6, %9
  %11 = sdiv i32 %10, %3
  %12 = getelementptr inbounds nuw i8, ptr %0, i64 72
  %13 = load ptr, ptr %12, align 8, !tbaa !19
  %14 = getelementptr inbounds nuw i8, ptr %13, i64 12
  %15 = getelementptr inbounds nuw i8, ptr %13, i64 8
  %16 = getelementptr inbounds nuw i8, ptr %13, i64 24
  %17 = load double, ptr %16, align 8, !tbaa !49
  %18 = getelementptr inbounds nuw i8, ptr %13, i64 36
  %19 = load i32, ptr %18, align 4, !tbaa !48
  %20 = icmp slt i32 %8, %11
  br i1 %20, label %.lr.ph45, label %._crit_edge46

.lr.ph45:                                         ; preds = %4
  %21 = getelementptr inbounds nuw i8, ptr %13, i64 20
  %22 = load float, ptr %21, align 4, !tbaa !55
  %23 = fdiv nsz float 1.000000e+00, %22
  %24 = getelementptr inbounds nuw i8, ptr %13, i64 16
  %25 = load float, ptr %24, align 8, !tbaa !56
  %26 = load ptr, ptr %1, align 8, !tbaa !58
  %27 = getelementptr inbounds nuw i8, ptr %1, i64 104
  %28 = load i32, ptr %27, align 8, !tbaa !57
  %29 = icmp sgt i32 %28, 0
  %30 = getelementptr inbounds nuw i8, ptr %13, i64 9
  %31 = getelementptr inbounds nuw i8, ptr %13, i64 10
  %32 = getelementptr inbounds nuw i8, ptr %13, i64 13
  %33 = getelementptr inbounds nuw i8, ptr %13, i64 14
  %34 = fpext nsz float %25 to double
  %35 = fpext nsz float %23 to double
  %36 = sitofp i32 %19 to double
  %37 = getelementptr inbounds nuw i8, ptr %13, i64 11
  br i1 %29, label %.lr.ph45.split.us, label %._crit_edge46

.lr.ph45.split.us:                                ; preds = %.lr.ph45
  %38 = getelementptr inbounds nuw i8, ptr %1, i64 64
  %39 = load i32, ptr %38, align 8, !tbaa !59
  %40 = fcmp nsz olt float %23, 1.000000e+04
  %41 = sext i32 %8 to i64
  %42 = sext i32 %39 to i64
  %wide.trip.count59 = sext i32 %11 to i64
  br i1 %40, label %.lr.ph.us.us, label %.lr.ph.us.preheader

.lr.ph.us.preheader:                              ; preds = %.lr.ph45.split.us
  %43 = trunc i32 %19 to i16
  br label %.lr.ph.us

.lr.ph.us.us:                                     ; preds = %.lr.ph45.split.us, %._crit_edge.split.us.us.us
  %indvars.iv56 = phi i64 [ %indvars.iv.next57, %._crit_edge.split.us.us.us ], [ %41, %.lr.ph45.split.us ]
  %44 = mul nsw i64 %indvars.iv56, %42
  %45 = getelementptr inbounds i8, ptr %26, i64 %44
  br label %do_colorkey_pixel.exit.us.us.us

do_colorkey_pixel.exit.us.us.us:                  ; preds = %do_colorkey_pixel.exit.us.us.us, %.lr.ph.us.us
  %.04142.us.us.us = phi i32 [ 0, %.lr.ph.us.us ], [ %98, %do_colorkey_pixel.exit.us.us.us ]
  %46 = shl nsw i32 %.04142.us.us.us, 2
  %47 = load i8, ptr %15, align 1, !tbaa !60
  %48 = zext i8 %47 to i32
  %49 = add nuw nsw i32 %46, %48
  %50 = zext nneg i32 %49 to i64
  %51 = getelementptr inbounds nuw i16, ptr %45, i64 %50
  %52 = load i16, ptr %51, align 2, !tbaa !65
  %53 = load i8, ptr %30, align 1, !tbaa !60
  %54 = zext i8 %53 to i32
  %55 = add nuw nsw i32 %46, %54
  %56 = zext nneg i32 %55 to i64
  %57 = getelementptr inbounds nuw i16, ptr %45, i64 %56
  %58 = load i16, ptr %57, align 2, !tbaa !65
  %59 = load i8, ptr %31, align 1, !tbaa !60
  %60 = zext i8 %59 to i32
  %61 = add nuw nsw i32 %46, %60
  %62 = zext nneg i32 %61 to i64
  %63 = getelementptr inbounds nuw i16, ptr %45, i64 %62
  %64 = load i16, ptr %63, align 2, !tbaa !65
  %65 = uitofp i16 %52 to double
  %66 = load i8, ptr %14, align 1, !tbaa !60
  %67 = uitofp i8 %66 to double
  %68 = fneg nsz double %67
  %69 = tail call nsz double @llvm.fmuladd.f64(double %65, double %17, double %68)
  %70 = uitofp i16 %58 to double
  %71 = load i8, ptr %32, align 1, !tbaa !60
  %72 = uitofp i8 %71 to double
  %73 = fneg nsz double %72
  %74 = tail call nsz double @llvm.fmuladd.f64(double %70, double %17, double %73)
  %75 = uitofp i16 %64 to double
  %76 = load i8, ptr %33, align 1, !tbaa !60
  %77 = uitofp i8 %76 to double
  %78 = fneg nsz double %77
  %79 = tail call nsz double @llvm.fmuladd.f64(double %75, double %17, double %78)
  %80 = fmul nsz double %74, %74
  %81 = tail call nsz double @llvm.fmuladd.f64(double %69, double %69, double %80)
  %82 = tail call nsz double @llvm.fmuladd.f64(double %79, double %79, double %81)
  %83 = fdiv nsz double %82, 1.950750e+05
  %84 = tail call nsz double @llvm.sqrt.f64(double %83)
  %85 = fsub nsz double %84, %34
  %86 = fmul nsz double %85, %35
  %87 = fcmp nsz ogt double %86, 0.000000e+00
  %88 = select nsz i1 %87, double %86, double 0.000000e+00
  %89 = fcmp nsz ogt double %88, 1.000000e+00
  %..i.i.us.us.us = select nsz i1 %89, double 1.000000e+00, double %88
  %90 = fmul nsz double %..i.i.us.us.us, %36
  %91 = fptosi double %90 to i32
  %92 = trunc i32 %91 to i16
  %93 = load i8, ptr %37, align 1, !tbaa !60
  %94 = zext i8 %93 to i32
  %95 = add nuw nsw i32 %46, %94
  %96 = zext nneg i32 %95 to i64
  %97 = getelementptr inbounds nuw i16, ptr %45, i64 %96
  store i16 %92, ptr %97, align 2, !tbaa !65
  %98 = add nuw nsw i32 %.04142.us.us.us, 1
  %exitcond55.not = icmp eq i32 %98, %28
  br i1 %exitcond55.not, label %._crit_edge.split.us.us.us, label %do_colorkey_pixel.exit.us.us.us, !llvm.loop !67

._crit_edge.split.us.us.us:                       ; preds = %do_colorkey_pixel.exit.us.us.us
  %indvars.iv.next57 = add nsw i64 %indvars.iv56, 1
  %exitcond60.not = icmp eq i64 %indvars.iv.next57, %wide.trip.count59
  br i1 %exitcond60.not, label %._crit_edge46, label %.lr.ph.us.us, !llvm.loop !68

.lr.ph.us:                                        ; preds = %.lr.ph.us.preheader, %._crit_edge.split.us49
  %indvars.iv = phi i64 [ %41, %.lr.ph.us.preheader ], [ %indvars.iv.next, %._crit_edge.split.us49 ]
  %99 = mul nsw i64 %indvars.iv, %42
  %100 = getelementptr inbounds i8, ptr %26, i64 %99
  br label %do_colorkey_pixel.exit.us47

do_colorkey_pixel.exit.us47:                      ; preds = %.lr.ph.us, %do_colorkey_pixel.exit.us47
  %.04142.us48 = phi i32 [ 0, %.lr.ph.us ], [ %147, %do_colorkey_pixel.exit.us47 ]
  %101 = shl nsw i32 %.04142.us48, 2
  %102 = load i8, ptr %15, align 1, !tbaa !60
  %103 = zext i8 %102 to i32
  %104 = add nuw nsw i32 %101, %103
  %105 = zext nneg i32 %104 to i64
  %106 = getelementptr inbounds nuw i16, ptr %100, i64 %105
  %107 = load i16, ptr %106, align 2, !tbaa !65
  %108 = load i8, ptr %30, align 1, !tbaa !60
  %109 = zext i8 %108 to i32
  %110 = add nuw nsw i32 %101, %109
  %111 = zext nneg i32 %110 to i64
  %112 = getelementptr inbounds nuw i16, ptr %100, i64 %111
  %113 = load i16, ptr %112, align 2, !tbaa !65
  %114 = load i8, ptr %31, align 1, !tbaa !60
  %115 = zext i8 %114 to i32
  %116 = add nuw nsw i32 %101, %115
  %117 = zext nneg i32 %116 to i64
  %118 = getelementptr inbounds nuw i16, ptr %100, i64 %117
  %119 = load i16, ptr %118, align 2, !tbaa !65
  %120 = uitofp i16 %107 to double
  %121 = load i8, ptr %14, align 1, !tbaa !60
  %122 = uitofp i8 %121 to double
  %123 = fneg nsz double %122
  %124 = tail call nsz double @llvm.fmuladd.f64(double %120, double %17, double %123)
  %125 = uitofp i16 %113 to double
  %126 = load i8, ptr %32, align 1, !tbaa !60
  %127 = uitofp i8 %126 to double
  %128 = fneg nsz double %127
  %129 = tail call nsz double @llvm.fmuladd.f64(double %125, double %17, double %128)
  %130 = uitofp i16 %119 to double
  %131 = load i8, ptr %33, align 1, !tbaa !60
  %132 = uitofp i8 %131 to double
  %133 = fneg nsz double %132
  %134 = tail call nsz double @llvm.fmuladd.f64(double %130, double %17, double %133)
  %135 = fmul nsz double %129, %129
  %136 = tail call nsz double @llvm.fmuladd.f64(double %124, double %124, double %135)
  %137 = tail call nsz double @llvm.fmuladd.f64(double %134, double %134, double %136)
  %138 = fdiv nsz double %137, 1.950750e+05
  %139 = tail call nsz double @llvm.sqrt.f64(double %138)
  %140 = fcmp nsz ogt double %139, %34
  %141 = select i1 %140, i16 %43, i16 0
  %142 = load i8, ptr %37, align 1, !tbaa !60
  %143 = zext i8 %142 to i32
  %144 = add nuw nsw i32 %101, %143
  %145 = zext nneg i32 %144 to i64
  %146 = getelementptr inbounds nuw i16, ptr %100, i64 %145
  store i16 %141, ptr %146, align 2, !tbaa !65
  %147 = add nuw nsw i32 %.04142.us48, 1
  %exitcond.not = icmp eq i32 %147, %28
  br i1 %exitcond.not, label %._crit_edge.split.us49, label %do_colorkey_pixel.exit.us47, !llvm.loop !67

._crit_edge.split.us49:                           ; preds = %do_colorkey_pixel.exit.us47
  %indvars.iv.next = add nsw i64 %indvars.iv, 1
  %exitcond54.not = icmp eq i64 %indvars.iv.next, %wide.trip.count59
  br i1 %exitcond54.not, label %._crit_edge46, label %.lr.ph.us, !llvm.loop !68

._crit_edge46:                                    ; preds = %._crit_edge.split.us49, %._crit_edge.split.us.us.us, %.lr.ph45, %4
  ret i32 0
}